target datalayout = "e-m:e-p270:32:32-p271:32:32-p272:64:64-i64:64-i128:128-f80:128-n8:16:32:64-S128"
target triple = "x86_64-unknown-linux-gnu"

%"class.hermes::GlobalObjectProperty" = type <{ %"class.hermes::Value", ptr, ptr, i8, [7 x i8] }>
%"class.hermes::Value" = type { i8, %"class.hermes::Type", %"class.llvh::SmallVector" }
%"class.hermes::Type" = type { i16, i16 }
%"class.llvh::SmallVector" = type { %"class.llvh::SmallVectorImpl", %"struct.llvh::SmallVectorStorage" }
%"class.llvh::SmallVectorImpl" = type { %"class.llvh::SmallVectorTemplateBase" }
%"class.llvh::SmallVectorTemplateBase" = type { %"class.llvh::SmallVectorTemplateCommon" }
%"class.llvh::SmallVectorTemplateCommon" = type { %"class.llvh::SmallVectorBase" }
%"class.llvh::SmallVectorBase" = type { ptr, i32, i32 }
%"struct.llvh::SmallVectorStorage" = type { [2 x %"struct.llvh::AlignedCharArrayUnion"] }
%"struct.llvh::AlignedCharArrayUnion" = type { %"struct.llvh::AlignedCharArray" }
%"struct.llvh::AlignedCharArray" = type { [8 x i8] }

; Function Attrs: mustprogress nounwind uwtable
define linkonce_odr hidden noundef ptr @_ZNK6hermes20GlobalObjectProperty7getNameEv(ptr noundef nonnull align 8 dereferenceable(57) %this) #0 comdat align 2 {
entry:
  %this.addr = alloca ptr, align 8
  store ptr %this, ptr %this.addr, align 8
  %this1 = load ptr, ptr %this.addr, align 8
  %name_ = getelementptr inbounds %"class.hermes::GlobalObjectProperty", ptr %this1, i32 0, i32 2
  %0 = load ptr, ptr %name_, align 8
  ret ptr %0
}

; Function Attrs: mustprogress nounwind uwtable
define linkonce_odr hidden noundef zeroext i1 @_ZNK6hermes20GlobalObjectProperty10isDeclaredEv(ptr noundef nonnull align 8 dereferenceable(57) %this) #0 comdat align 2 {
entry:
  %this.addr = alloca ptr, align 8
  store ptr %this, ptr %this.addr, align 8
  %this1 = load ptr, ptr %this.addr, align 8
  %declared_ = getelementptr inbounds %"class.hermes::GlobalObjectProperty", ptr %this1, i32 0, i32 3
  %0 = load i8, ptr %declared_, align 8
  %tobool = trunc i8 %0 to i1
  ret i1 %tobool
}

; Function Attrs: mustprogress nounwind uwtable
define hidden noundef ptr @_ZN6hermes5irgen24loadGlobalObjectPropertyERNS_9IRBuilderEPNS_20GlobalObjectPropertyEb(ptr noundef nonnull align 8 dereferenceable(40) %builder, ptr noundef %from, i1 noundef zeroext %inhibitThrow) #0 {
entry:
  %retval = alloca ptr, align 8
  %builder.addr = alloca ptr, align 8
  %from.addr = alloca ptr, align 8
  %inhibitThrow.addr = alloca i8, align 1
  store ptr %builder, ptr %builder.addr, align 8
  store ptr %from, ptr %from.addr, align 8
  %frombool = zext i1 %inhibitThrow to i8
  store i8 %frombool, ptr %inhibitThrow.addr, align 1
  %0 = load ptr, ptr %from.addr, align 8
  %call = call noundef zeroext i1 @_ZNK6hermes20GlobalObjectProperty10isDeclaredEv(ptr noundef nonnull align 8 dereferenceable(57) %0)
  br i1 %call, label %if.then, label %lor.lhs.false

lor.lhs.false:                                    ; preds = %entry
  %1 = load i8, ptr %inhibitThrow.addr, align 1
  %tobool = trunc i8 %1 to i1
  br i1 %tobool, label %if.then, label %if.end

if.then:                                          ; preds = %lor.lhs.false, %entry
  %2 = load ptr, ptr %builder.addr, align 8
  %3 = load ptr, ptr %builder.addr, align 8
  %call1 = call noundef ptr @_ZN6hermes9IRBuilder15getGlobalObjectEv(ptr noundef nonnull align 8 dereferenceable(40) %3)
  %4 = load ptr, ptr %from.addr, align 8
  %call2 = call noundef ptr @_ZNK6hermes20GlobalObjectProperty7getNameEv(ptr noundef nonnull align 8 dereferenceable(57) %4)
  %call3 = call noundef ptr @_ZN6hermes9IRBuilder22createLoadPropertyInstEPNS_5ValueES2_(ptr noundef nonnull align 8 dereferenceable(40) %2, ptr noundef %call1, ptr noundef %call2)
  store ptr %call3, ptr %retval, align 8
  br label %return

if.end:                                           ; preds = %lor.lhs.false
  %5 = load ptr, ptr %builder.addr, align 8
  %6 = load ptr, ptr %from.addr, align 8
  %call4 = call noundef ptr @_ZN6hermes9IRBuilder31createTryLoadGlobalPropertyInstEPNS_20GlobalObjectPropertyE(ptr noundef nonnull align 8 dereferenceable(40) %5, ptr noundef %6)
  store ptr %call4, ptr %retval, align 8
  br label %return

return:                                           ; preds = %if.end, %if.then
  %7 = load ptr, ptr %retval, align 8
  ret ptr %7
}