; Function Attrs: mustprogress nounwind uwtable
define hidden noundef ptr @_ZN6hermes5irgen24loadGlobalObjectPropertyERNS_9IRBuilderEPNS_20GlobalObjectPropertyEb(ptr noundef nonnull align 8 dereferenceable(40) %builder, ptr noundef %from, i1 noundef zeroext %inhibitThrow) local_unnamed_addr #0 {
entry:
  %declared_.i = getelementptr inbounds i8, ptr %from, i64 56
  %0 = load i8, ptr %declared_.i, align 8
  %1 = and i8 %0, 1
  %tobool.i = icmp ne i8 %1, 0
  %brmerge = or i1 %tobool.i, %inhibitThrow
  br i1 %brmerge, label %if.then, label %if.end

if.then:                                          ; preds = %entry
  %call1 = tail call noundef ptr @_ZN6hermes9IRBuilder15getGlobalObjectEv(ptr noundef nonnull align 8 dereferenceable(40) %builder) #15
  %name_.i = getelementptr inbounds i8, ptr %from, i64 48
  %2 = load ptr, ptr %name_.i, align 8
  %call3 = tail call noundef ptr @_ZN6hermes9IRBuilder22createLoadPropertyInstEPNS_5ValueES2_(ptr noundef nonnull align 8 dereferenceable(40) %builder, ptr noundef %call1, ptr noundef %2) #15
  br label %return

if.end:                                           ; preds = %entry
  %call4 = tail call noundef ptr @_ZN6hermes9IRBuilder31createTryLoadGlobalPropertyInstEPNS_20GlobalObjectPropertyE(ptr noundef nonnull align 8 dereferenceable(40) %builder, ptr noundef nonnull %from) #15
  br label %return

return:                                           ; preds = %if.end, %if.then
  %retval.0 = phi ptr [ %call3, %if.then ], [ %call4, %if.end ]
  ret ptr %retval.0
}